target datalayout = "e-m:e-p270:32:32-p271:32:32-p272:64:64-i64:64-i128:128-f80:128-n8:16:32:64-S128"
target triple = "x86_64-pc-linux-gnu"

; Function Attrs: inlinehint mustprogress nounwind uwtable
define internal noundef signext i8 @_ZL9U_FAILURE10UErrorCode(i32 noundef %0) #2 {
  %2 = alloca i32, align 4
  store i32 %0, ptr %2, align 4, !tbaa !13
  %3 = load i32, ptr %2, align 4, !tbaa !13
  %4 = icmp sgt i32 %3, 0
  %5 = zext i1 %4 to i8
  ret i8 %5
}

; Function Attrs: mustprogress uwtable
define i32 @ubidi_writeReverse_77(ptr noundef %0, i32 noundef %1, ptr noundef %2, i32 noundef %3, i16 noundef zeroext %4, ptr noundef %5) #0 {
  %7 = alloca i32, align 4
  %8 = alloca ptr, align 8
  %9 = alloca i32, align 4
  %10 = alloca ptr, align 8
  %11 = alloca i32, align 4
  %12 = alloca i16, align 2
  %13 = alloca ptr, align 8
  %14 = alloca i32, align 4
  %15 = alloca i32, align 4
  store ptr %0, ptr %8, align 8, !tbaa !3
  store i32 %1, ptr %9, align 4, !tbaa !8
  store ptr %2, ptr %10, align 8, !tbaa !3
  store i32 %3, ptr %11, align 4, !tbaa !8
  store i16 %4, ptr %12, align 2, !tbaa !10
  store ptr %5, ptr %13, align 8, !tbaa !12
  call void @llvm.lifetime.start.p0(i64 4, ptr %14) #4
  %16 = load ptr, ptr %13, align 8, !tbaa !12
  %17 = icmp eq ptr %16, null
  br i1 %17, label %23, label %18

18:                                               ; preds = %6
  %19 = load ptr, ptr %13, align 8, !tbaa !12
  %20 = load i32, ptr %19, align 4, !tbaa !13
  %21 = call noundef signext i8 @_ZL9U_FAILURE10UErrorCode(i32 noundef %20)
  %22 = icmp ne i8 %21, 0
  br i1 %22, label %23, label %24

23:                                               ; preds = %18, %6
  store i32 0, ptr %7, align 4
  store i32 1, ptr %15, align 4
  br label %92

24:                                               ; preds = %18
  %25 = load ptr, ptr %8, align 8, !tbaa !3
  %26 = icmp eq ptr %25, null
  br i1 %26, label %39, label %27

27:                                               ; preds = %24
  %28 = load i32, ptr %9, align 4, !tbaa !8
  %29 = icmp slt i32 %28, -1
  br i1 %29, label %39, label %30

30:                                               ; preds = %27
  %31 = load i32, ptr %11, align 4, !tbaa !8
  %32 = icmp slt i32 %31, 0
  br i1 %32, label %39, label %33

33:                                               ; preds = %30
  %34 = load i32, ptr %11, align 4, !tbaa !8
  %35 = icmp sgt i32 %34, 0
  br i1 %35, label %36, label %41

36:                                               ; preds = %33
  %37 = load ptr, ptr %10, align 8, !tbaa !3
  %38 = icmp eq ptr %37, null
  br i1 %38, label %39, label %41

39:                                               ; preds = %36, %30, %27, %24
  %40 = load ptr, ptr %13, align 8, !tbaa !12
  store i32 1, ptr %40, align 4, !tbaa !13
  store i32 0, ptr %7, align 4
  store i32 1, ptr %15, align 4
  br label %92

41:                                               ; preds = %36, %33
  %42 = load ptr, ptr %10, align 8, !tbaa !3
  %43 = icmp ne ptr %42, null
  br i1 %43, label %44, label %68

44:                                               ; preds = %41
  %45 = load ptr, ptr %8, align 8, !tbaa !3
  %46 = load ptr, ptr %10, align 8, !tbaa !3
  %47 = icmp uge ptr %45, %46
  br i1 %47, label %48, label %55

48:                                               ; preds = %44
  %49 = load ptr, ptr %8, align 8, !tbaa !3
  %50 = load ptr, ptr %10, align 8, !tbaa !3
  %51 = load i32, ptr %11, align 4, !tbaa !8
  %52 = sext i32 %51 to i64
  %53 = getelementptr inbounds i16, ptr %50, i64 %52
  %54 = icmp ult ptr %49, %53
  br i1 %54, label %66, label %55

55:                                               ; preds = %48, %44
  %56 = load ptr, ptr %10, align 8, !tbaa !3
  %57 = load ptr, ptr %8, align 8, !tbaa !3
  %58 = icmp uge ptr %56, %57
  br i1 %58, label %59, label %68

59:                                               ; preds = %55
  %60 = load ptr, ptr %10, align 8, !tbaa !3
  %61 = load ptr, ptr %8, align 8, !tbaa !3
  %62 = load i32, ptr %9, align 4, !tbaa !8
  %63 = sext i32 %62 to i64
  %64 = getelementptr inbounds i16, ptr %61, i64 %63
  %65 = icmp ult ptr %60, %64
  br i1 %65, label %66, label %68

66:                                               ; preds = %59, %48
  %67 = load ptr, ptr %13, align 8, !tbaa !12
  store i32 1, ptr %67, align 4, !tbaa !13
  store i32 0, ptr %7, align 4
  store i32 1, ptr %15, align 4
  br label %92

68:                                               ; preds = %59, %55, %41
  %69 = load i32, ptr %9, align 4, !tbaa !8
  %70 = icmp eq i32 %69, -1
  br i1 %70, label %71, label %74

71:                                               ; preds = %68
  %72 = load ptr, ptr %8, align 8, !tbaa !3
  %73 = call i32 @u_strlen_77(ptr noundef %72)
  store i32 %73, ptr %9, align 4, !tbaa !8
  br label %74

74:                                               ; preds = %71, %68
  %75 = load i32, ptr %9, align 4, !tbaa !8
  %76 = icmp sgt i32 %75, 0
  br i1 %76, label %77, label %85

77:                                               ; preds = %74
  %78 = load ptr, ptr %8, align 8, !tbaa !3
  %79 = load i32, ptr %9, align 4, !tbaa !8
  %80 = load ptr, ptr %10, align 8, !tbaa !3
  %81 = load i32, ptr %11, align 4, !tbaa !8
  %82 = load i16, ptr %12, align 2, !tbaa !10
  %83 = load ptr, ptr %13, align 8, !tbaa !12
  %84 = call noundef i32 @_ZL14doWriteReversePKDsiPDsitP10UErrorCode(ptr noundef %78, i32 noundef %79, ptr noundef %80, i32 noundef %81, i16 noundef zeroext %82, ptr noundef %83)
  store i32 %84, ptr %14, align 4, !tbaa !8
  br label %86

85:                                               ; preds = %74
  store i32 0, ptr %14, align 4, !tbaa !8
  br label %86

86:                                               ; preds = %85, %77
  %87 = load ptr, ptr %10, align 8, !tbaa !3
  %88 = load i32, ptr %11, align 4, !tbaa !8
  %89 = load i32, ptr %14, align 4, !tbaa !8
  %90 = load ptr, ptr %13, align 8, !tbaa !12
  %91 = call i32 @u_terminateUChars_77(ptr noundef %87, i32 noundef %88, i32 noundef %89, ptr noundef %90)
  store i32 %91, ptr %7, align 4
  store i32 1, ptr %15, align 4
  br label %92

92:                                               ; preds = %86, %66, %39, %23
  call void @llvm.lifetime.end.p0(i64 4, ptr %14) #4
  %93 = load i32, ptr %7, align 4
  ret i32 %93
}