; Function Attrs: mustprogress uwtable
define i32 @ubidi_writeReverse_77(ptr noundef %0, i32 noundef %1, ptr noundef %2, i32 noundef %3, i16 noundef zeroext %4, ptr noundef %5) local_unnamed_addr #0 {
  %7 = icmp eq ptr %5, null
  br i1 %7, label %39, label %8

8:                                                ; preds = %6
  %9 = load i32, ptr %5, align 4, !tbaa !3
  %10 = icmp slt i32 %9, 1
  br i1 %10, label %11, label %39

11:                                               ; preds = %8
  %12 = icmp eq ptr %0, null
  %13 = icmp slt i32 %1, -1
  %or.cond = or i1 %12, %13
  %14 = icmp slt i32 %3, 0
  %or.cond3 = or i1 %or.cond, %14
  br i1 %or.cond3, label %18, label %15

15:                                               ; preds = %11
  %16 = icmp ne i32 %3, 0
  %17 = icmp eq ptr %2, null
  %or.cond5 = and i1 %17, %16
  br i1 %or.cond5, label %18, label %19

18:                                               ; preds = %15, %11
  store i32 1, ptr %5, align 4, !tbaa !3
  br label %39

19:                                               ; preds = %15
  br i1 %17, label %29, label %20

20:                                               ; preds = %19
  %.not46 = icmp uge ptr %0, %2
  %21 = zext nneg i32 %3 to i64
  %22 = getelementptr inbounds nuw i16, ptr %2, i64 %21
  %23 = icmp ult ptr %0, %22
  %or.cond50 = select i1 %.not46, i1 %23, i1 false
  br i1 %or.cond50, label %28, label %24

24:                                               ; preds = %20
  %.not47 = icmp uge ptr %2, %0
  %25 = sext i32 %1 to i64
  %26 = getelementptr inbounds i16, ptr %0, i64 %25
  %27 = icmp ult ptr %2, %26
  %or.cond53 = select i1 %.not47, i1 %27, i1 false
  br i1 %or.cond53, label %28, label %29

28:                                               ; preds = %24, %20
  store i32 1, ptr %5, align 4, !tbaa !3
  br label %39

29:                                               ; preds = %24, %19
  %30 = icmp eq i32 %1, -1
  br i1 %30, label %31, label %33

31:                                               ; preds = %29
  %32 = tail call i32 @u_strlen_77(ptr noundef nonnull %0)
  br label %33

33:                                               ; preds = %31, %29
  %.039 = phi i32 [ %32, %31 ], [ %1, %29 ]
  %34 = icmp sgt i32 %.039, 0
  br i1 %34, label %35, label %37

35:                                               ; preds = %33
  %36 = tail call fastcc noundef i32 @_ZL14doWriteReversePKDsiPDsitP10UErrorCode(ptr noundef %0, i32 noundef %.039, ptr noundef %2, i32 noundef %3, i16 noundef zeroext %4, ptr noundef %5)
  br label %37

37:                                               ; preds = %33, %35
  %.0 = phi i32 [ %36, %35 ], [ 0, %33 ]
  %38 = tail call i32 @u_terminateUChars_77(ptr noundef %2, i32 noundef %3, i32 noundef %.0, ptr noundef nonnull %5)
  br label %39

39:                                               ; preds = %6, %8, %37, %28, %18
  %.038 = phi i32 [ 0, %18 ], [ 0, %28 ], [ %38, %37 ], [ 0, %8 ], [ 0, %6 ]
  ret i32 %.038
}